; Function Attrs: mustprogress uwtable
define void @_ZN8QuantLib30ConstantYoYOptionletVolatilityC2ENS_6HandleINS_5QuoteEEEjRKNS_8CalendarENS_21BusinessDayConventionERKNS_10DayCounterERKNS_6PeriodENS_9FrequencyEbddNS_14VolatilityTypeEd(ptr noundef nonnull align 8 dereferenceable(144) %this, ptr noundef %vtt, ptr nocapture noundef %v, i32 noundef %settlementDays, ptr noundef nonnull align 8 dereferenceable(16) %cal, i32 noundef %bdc, ptr noundef nonnull align 8 dereferenceable(16) %dc, ptr nocapture noundef nonnull readonly align 4 dereferenceable(8) %observationLag, i32 noundef %frequency, i1 noundef zeroext %indexIsInterpolated, double noundef %minStrike, double noundef %maxStrike, i32 noundef %volType, double noundef %displacement) unnamed_addr #6 align 2 {
entry:
  %0 = getelementptr inbounds i8, ptr %vtt, i64 8
  tail call void @_ZN8QuantLib29YoYOptionletVolatilitySurfaceC2EjRKNS_8CalendarENS_21BusinessDayConventionERKNS_10DayCounterERKNS_6PeriodENS_9FrequencyEbNS_14VolatilityTypeEd(ptr noundef nonnull align 8 dereferenceable(112) %this, ptr noundef nonnull %0, i32 noundef %settlementDays, ptr noundef nonnull align 8 dereferenceable(16) %cal, i32 noundef %bdc, ptr noundef nonnull align 8 dereferenceable(16) %dc, ptr noundef nonnull align 4 dereferenceable(8) %observationLag, i32 noundef %frequency, i1 noundef zeroext %indexIsInterpolated, i32 noundef %volType, double noundef %displacement)
  %1 = load ptr, ptr %vtt, align 8
  store ptr %1, ptr %this, align 8, !tbaa !28
  %2 = getelementptr inbounds i8, ptr %vtt, i64 80
  %3 = load ptr, ptr %2, align 8
  %vbase.offset.ptr = getelementptr i8, ptr %1, i64 -24
  %vbase.offset = load i64, ptr %vbase.offset.ptr, align 8
  %add.ptr = getelementptr inbounds i8, ptr %this, i64 %vbase.offset
  store ptr %3, ptr %add.ptr, align 8, !tbaa !28
  %4 = getelementptr inbounds i8, ptr %vtt, i64 88
  %5 = load ptr, ptr %4, align 8
  %vtable3 = load ptr, ptr %this, align 8, !tbaa !28
  %vbase.offset.ptr4 = getelementptr i8, ptr %vtable3, i64 -32
  %vbase.offset5 = load i64, ptr %vbase.offset.ptr4, align 8
  %add.ptr6 = getelementptr inbounds i8, ptr %this, i64 %vbase.offset5
  store ptr %5, ptr %add.ptr6, align 8, !tbaa !28
  %volatility_ = getelementptr inbounds nuw i8, ptr %this, i64 112
  %6 = load ptr, ptr %v, align 8, !tbaa !86
  store ptr %6, ptr %volatility_, align 8, !tbaa !86
  %pn.i.i = getelementptr inbounds nuw i8, ptr %this, i64 120
  %pn3.i.i = getelementptr inbounds nuw i8, ptr %v, i64 8
  %7 = load ptr, ptr %pn3.i.i, align 8, !tbaa !41
  store ptr %7, ptr %pn.i.i, align 8, !tbaa !41
  tail call void @llvm.memset.p0.i64(ptr noundef nonnull align 8 dereferenceable(16) %v, i8 0, i64 16, i1 false)
  %minStrike_ = getelementptr inbounds nuw i8, ptr %this, i64 128
  store double %minStrike, ptr %minStrike_, align 8, !tbaa !74
  %maxStrike_ = getelementptr inbounds nuw i8, ptr %this, i64 136
  store double %maxStrike, ptr %maxStrike_, align 8, !tbaa !78
  ret void
}